target datalayout = "e-m:e-p270:32:32-p271:32:32-p272:64:64-i64:64-i128:128-f80:128-n8:16:32:64-S128"
target triple = "x86_64-unknown-linux-gnu"

%"struct.facebook::velox::common::OutputByteStream" = type <{ ptr, i32, [4 x i8] }>
%"class.std::__cxx11::basic_string" = type { %"struct.std::__cxx11::basic_string<char>::_Alloc_hider", i64, %union.anon }
%"struct.std::__cxx11::basic_string<char>::_Alloc_hider" = type { ptr }
%union.anon = type { i64, [8 x i8] }

; Function Attrs: mustprogress nounwind uwtable
define linkonce_odr void @_ZN8facebook5velox6common16OutputByteStream9appendOneIsEEvT_(ptr noundef nonnull align 8 dereferenceable(12) %this, i16 noundef signext %value) #1 comdat align 2 {
entry:
  %this.addr = alloca ptr, align 8
  %value.addr = alloca i16, align 2
  store ptr %this, ptr %this.addr, align 8
  store i16 %value, ptr %value.addr, align 2
  %this1 = load ptr, ptr %this.addr, align 8
  %0 = load i16, ptr %value.addr, align 2
  %data_ = getelementptr inbounds %"struct.facebook::velox::common::OutputByteStream", ptr %this1, i32 0, i32 0
  %1 = load ptr, ptr %data_, align 8
  %offset_ = getelementptr inbounds %"struct.facebook::velox::common::OutputByteStream", ptr %this1, i32 0, i32 1
  %2 = load i32, ptr %offset_, align 8
  %idx.ext = sext i32 %2 to i64
  %add.ptr = getelementptr inbounds i8, ptr %1, i64 %idx.ext
  store i16 %0, ptr %add.ptr, align 2
  %offset_2 = getelementptr inbounds %"struct.facebook::velox::common::OutputByteStream", ptr %this1, i32 0, i32 1
  %3 = load i32, ptr %offset_2, align 8
  %conv = sext i32 %3 to i64
  %add = add i64 %conv, 2
  %conv3 = trunc i64 %add to i32
  store i32 %conv3, ptr %offset_2, align 8
  ret void
}

; Function Attrs: mustprogress nounwind uwtable
define linkonce_odr void @_ZN8facebook5velox6common16OutputByteStream9appendOneIaEEvT_(ptr noundef nonnull align 8 dereferenceable(12) %this, i8 noundef signext %value) #1 comdat align 2 {
entry:
  %this.addr = alloca ptr, align 8
  %value.addr = alloca i8, align 1
  store ptr %this, ptr %this.addr, align 8
  store i8 %value, ptr %value.addr, align 1
  %this1 = load ptr, ptr %this.addr, align 8
  %0 = load i8, ptr %value.addr, align 1
  %data_ = getelementptr inbounds %"struct.facebook::velox::common::OutputByteStream", ptr %this1, i32 0, i32 0
  %1 = load ptr, ptr %data_, align 8
  %offset_ = getelementptr inbounds %"struct.facebook::velox::common::OutputByteStream", ptr %this1, i32 0, i32 1
  %2 = load i32, ptr %offset_, align 8
  %idx.ext = sext i32 %2 to i64
  %add.ptr = getelementptr inbounds i8, ptr %1, i64 %idx.ext
  store i8 %0, ptr %add.ptr, align 1
  %offset_2 = getelementptr inbounds %"struct.facebook::velox::common::OutputByteStream", ptr %this1, i32 0, i32 1
  %3 = load i32, ptr %offset_2, align 8
  %conv = sext i32 %3 to i64
  %add = add i64 %conv, 1
  %conv3 = trunc i64 %add to i32
  store i32 %conv3, ptr %offset_2, align 8
  ret void
}

; Function Attrs: mustprogress nounwind uwtable
define linkonce_odr void @_ZN8facebook5velox6common16OutputByteStreamC2EPci(ptr noundef nonnull align 8 dereferenceable(12) %this, ptr noundef %data, i32 noundef %offset) unnamed_addr #1 comdat align 2 {
entry:
  %this.addr = alloca ptr, align 8
  %data.addr = alloca ptr, align 8
  %offset.addr = alloca i32, align 4
  store ptr %this, ptr %this.addr, align 8
  store ptr %data, ptr %data.addr, align 8
  store i32 %offset, ptr %offset.addr, align 4
  %this1 = load ptr, ptr %this.addr, align 8
  %data_ = getelementptr inbounds %"struct.facebook::velox::common::OutputByteStream", ptr %this1, i32 0, i32 0
  %0 = load ptr, ptr %data.addr, align 8
  store ptr %0, ptr %data_, align 8
  %offset_ = getelementptr inbounds %"struct.facebook::velox::common::OutputByteStream", ptr %this1, i32 0, i32 1
  %1 = load i32, ptr %offset.addr, align 4
  store i32 %1, ptr %offset_, align 8
  ret void
}

; Function Attrs: mustprogress uwtable
define void @_ZN8facebook5velox6common3hll9SparseHll14serializeEmptyB5cxx11Ea(ptr noalias sret(%"class.std::__cxx11::basic_string") align 8 %agg.result, i8 noundef signext %indexBitLength) #0 align 2 personality ptr @__gxx_personality_v0 {
entry:
  %result.ptr = alloca ptr, align 8
  %indexBitLength.addr = alloca i8, align 1
  %nrvo = alloca i1, align 1
  %exn.slot = alloca ptr, align 8
  %ehselector.slot = alloca i32, align 4
  %stream = alloca %"struct.facebook::velox::common::OutputByteStream", align 8
  store ptr %agg.result, ptr %result.ptr, align 8
  store i8 %indexBitLength, ptr %indexBitLength.addr, align 1
  store i1 false, ptr %nrvo, align 1
  call void @_ZNSt7__cxx1112basic_stringIcSt11char_traitsIcESaIcEEC1Ev(ptr noundef nonnull align 8 dereferenceable(32) %agg.result) #11
  invoke void @_ZNSt7__cxx1112basic_stringIcSt11char_traitsIcESaIcEE6resizeEm(ptr noundef nonnull align 8 dereferenceable(32) %agg.result, i64 noundef 4)
          to label %invoke.cont unwind label %lpad

invoke.cont:                                      ; preds = %entry
  %call = call noundef ptr @_ZNSt7__cxx1112basic_stringIcSt11char_traitsIcESaIcEE4dataEv(ptr noundef nonnull align 8 dereferenceable(32) %agg.result) #11
  invoke void @_ZN8facebook5velox6common16OutputByteStreamC2EPci(ptr noundef nonnull align 8 dereferenceable(12) %stream, ptr noundef %call, i32 noundef 0)
          to label %invoke.cont1 unwind label %lpad

invoke.cont1:                                     ; preds = %invoke.cont
  invoke void @_ZN8facebook5velox6common16OutputByteStream9appendOneIaEEvT_(ptr noundef nonnull align 8 dereferenceable(12) %stream, i8 noundef signext 2)
          to label %invoke.cont2 unwind label %lpad

invoke.cont2:                                     ; preds = %invoke.cont1
  %0 = load i8, ptr %indexBitLength.addr, align 1
  invoke void @_ZN8facebook5velox6common16OutputByteStream9appendOneIaEEvT_(ptr noundef nonnull align 8 dereferenceable(12) %stream, i8 noundef signext %0)
          to label %invoke.cont3 unwind label %lpad

invoke.cont3:                                     ; preds = %invoke.cont2
  invoke void @_ZN8facebook5velox6common16OutputByteStream9appendOneIsEEvT_(ptr noundef nonnull align 8 dereferenceable(12) %stream, i16 noundef signext 0)
          to label %invoke.cont4 unwind label %lpad

invoke.cont4:                                     ; preds = %invoke.cont3
  store i1 true, ptr %nrvo, align 1
  %nrvo.val = load i1, ptr %nrvo, align 1
  br i1 %nrvo.val, label %nrvo.skipdtor, label %nrvo.unused

lpad:                                             ; preds = %invoke.cont3, %invoke.cont2, %invoke.cont1, %invoke.cont, %entry
  %1 = landingpad { ptr, i32 }
          cleanup
  %2 = extractvalue { ptr, i32 } %1, 0
  store ptr %2, ptr %exn.slot, align 8
  %3 = extractvalue { ptr, i32 } %1, 1
  store i32 %3, ptr %ehselector.slot, align 4
  call void @_ZNSt7__cxx1112basic_stringIcSt11char_traitsIcESaIcEED1Ev(ptr noundef nonnull align 8 dereferenceable(32) %agg.result) #11
  br label %eh.resume

nrvo.unused:                                      ; preds = %invoke.cont4
  call void @_ZNSt7__cxx1112basic_stringIcSt11char_traitsIcESaIcEED1Ev(ptr noundef nonnull align 8 dereferenceable(32) %agg.result) #11
  br label %nrvo.skipdtor

nrvo.skipdtor:                                    ; preds = %nrvo.unused, %invoke.cont4
  ret void

eh.resume:                                        ; preds = %lpad
  %exn = load ptr, ptr %exn.slot, align 8
  %sel = load i32, ptr %ehselector.slot, align 4
  %lpad.val = insertvalue { ptr, i32 } poison, ptr %exn, 0
  %lpad.val5 = insertvalue { ptr, i32 } %lpad.val, i32 %sel, 1
  resume { ptr, i32 } %lpad.val5
}