; Function Attrs: mustprogress uwtable
define void @_ZN8facebook5velox6common3hll9SparseHll14serializeEmptyB5cxx11Ea(ptr noalias nonnull sret(%"class.std::__cxx11::basic_string") align 8 %agg.result, i8 noundef signext %indexBitLength) local_unnamed_addr #0 align 2 personality ptr @__gxx_personality_v0 {
entry:
  tail call void @_ZNSt7__cxx1112basic_stringIcSt11char_traitsIcESaIcEEC1Ev(ptr noundef nonnull align 8 dereferenceable(32) %agg.result) #22
  invoke void @_ZNSt7__cxx1112basic_stringIcSt11char_traitsIcESaIcEE6resizeEm(ptr noundef nonnull align 8 dereferenceable(32) %agg.result, i64 noundef 4)
          to label %invoke.cont unwind label %lpad

invoke.cont:                                      ; preds = %entry
  %call = tail call noundef ptr @_ZNSt7__cxx1112basic_stringIcSt11char_traitsIcESaIcEE4dataEv(ptr noundef nonnull align 8 dereferenceable(32) %agg.result) #22
  store i8 2, ptr %call, align 1
  %add.ptr.i4 = getelementptr inbounds nuw i8, ptr %call, i64 1
  store i8 %indexBitLength, ptr %add.ptr.i4, align 1
  %add.ptr.i8 = getelementptr inbounds nuw i8, ptr %call, i64 2
  store i16 0, ptr %add.ptr.i8, align 2
  ret void

lpad:                                             ; preds = %entry
  %0 = landingpad { ptr, i32 }
          cleanup
  tail call void @_ZNSt7__cxx1112basic_stringIcSt11char_traitsIcESaIcEED1Ev(ptr noundef nonnull align 8 dereferenceable(32) %agg.result) #22
  resume { ptr, i32 } %0
}